target datalayout = "e-m:e-p270:32:32-p271:32:32-p272:64:64-i64:64-i128:128-f80:128-n8:16:32:64-S128"
target triple = "x86_64-pc-linux-gnu"

%struct._object = type { %union.anon, ptr }
%union.anon = type { i64 }
%struct.anon = type { i32, i32 }

@_Py_NoneStruct = external global %struct._object, align 8
@.str.28 = private unnamed_addr constant [38 x i8] c"../cpython/Modules/_testcapi/object.c\00", align 1
@.str.39 = private unnamed_addr constant [20 x i8] c"Py_REFCNT(obj) == 1\00", align 1
@__PRETTY_FUNCTION__.test_refcount_macros = private unnamed_addr constant [55 x i8] c"PyObject *test_refcount_macros(PyObject *, PyObject *)\00", align 1
@.str.40 = private unnamed_addr constant [11 x i8] c"ref == obj\00", align 1
@.str.41 = private unnamed_addr constant [20 x i8] c"Py_REFCNT(obj) == 2\00", align 1
@.str.42 = private unnamed_addr constant [12 x i8] c"xref == obj\00", align 1
@.str.43 = private unnamed_addr constant [25 x i8] c"Py_XNewRef(NULL) == NULL\00", align 1

; Function Attrs: inlinehint nounwind uwtable
define internal void @Py_XINCREF(ptr noundef %0) #3 {
  %2 = alloca ptr, align 8
  store ptr %0, ptr %2, align 8, !tbaa !3
  %3 = load ptr, ptr %2, align 8, !tbaa !3
  %4 = icmp ne ptr %3, null
  br i1 %4, label %5, label %7

5:                                                ; preds = %1
  %6 = load ptr, ptr %2, align 8, !tbaa !3
  call void @Py_INCREF(ptr noundef %6)
  br label %7

7:                                                ; preds = %5, %1
  ret void
}

; Function Attrs: alwaysinline nounwind uwtable
define internal i32 @_Py_IsImmortal(ptr noundef %0) #4 {
  %2 = alloca ptr, align 8
  store ptr %0, ptr %2, align 8, !tbaa !3
  %3 = load ptr, ptr %2, align 8, !tbaa !3
  %4 = getelementptr inbounds nuw %struct._object, ptr %3, i32 0, i32 0
  %5 = getelementptr inbounds nuw %struct.anon, ptr %4, i32 0, i32 0
  %6 = load i32, ptr %5, align 8, !tbaa !16
  %7 = icmp slt i32 %6, 0
  %8 = zext i1 %7 to i32
  ret i32 %8
}

; Function Attrs: alwaysinline nounwind uwtable
define internal void @Py_INCREF(ptr noundef %0) #4 {
  %2 = alloca ptr, align 8
  %3 = alloca i32, align 4
  %4 = alloca i32, align 4
  store ptr %0, ptr %2, align 8, !tbaa !3
  call void @llvm.lifetime.start.p0(i64 4, ptr %3) #6
  %5 = load ptr, ptr %2, align 8, !tbaa !3
  %6 = getelementptr inbounds nuw %struct._object, ptr %5, i32 0, i32 0
  %7 = getelementptr inbounds nuw %struct.anon, ptr %6, i32 0, i32 0
  %8 = load i32, ptr %7, align 8, !tbaa !16
  store i32 %8, ptr %3, align 4, !tbaa !8
  %9 = load i32, ptr %3, align 4, !tbaa !8
  %10 = icmp slt i32 %9, 0
  br i1 %10, label %11, label %12

11:                                               ; preds = %1
  store i32 1, ptr %4, align 4
  br label %18

12:                                               ; preds = %1
  %13 = load i32, ptr %3, align 4, !tbaa !8
  %14 = add i32 %13, 1
  %15 = load ptr, ptr %2, align 8, !tbaa !3
  %16 = getelementptr inbounds nuw %struct._object, ptr %15, i32 0, i32 0
  %17 = getelementptr inbounds nuw %struct.anon, ptr %16, i32 0, i32 0
  store i32 %14, ptr %17, align 8, !tbaa !16
  store i32 0, ptr %4, align 4
  br label %18

18:                                               ; preds = %12, %11
  call void @llvm.lifetime.end.p0(i64 4, ptr %3) #6
  %19 = load i32, ptr %4, align 4
  switch i32 %19, label %21 [
    i32 0, label %20
    i32 1, label %20
  ]

20:                                               ; preds = %18, %18
  ret void

21:                                               ; preds = %18
  unreachable
}

; Function Attrs: inlinehint nounwind uwtable
define internal ptr @_Py_XNewRef(ptr noundef %0) #3 {
  %2 = alloca ptr, align 8
  store ptr %0, ptr %2, align 8, !tbaa !3
  %3 = load ptr, ptr %2, align 8, !tbaa !3
  call void @Py_XINCREF(ptr noundef %3)
  %4 = load ptr, ptr %2, align 8, !tbaa !3
  ret ptr %4
}

; Function Attrs: alwaysinline nounwind uwtable
define internal void @Py_DECREF(ptr noundef %0) #4 {
  %2 = alloca ptr, align 8
  store ptr %0, ptr %2, align 8, !tbaa !3
  %3 = load ptr, ptr %2, align 8, !tbaa !3
  %4 = call i32 @_Py_IsImmortal(ptr noundef %3)
  %5 = icmp ne i32 %4, 0
  br i1 %5, label %6, label %7

6:                                                ; preds = %1
  br label %16

7:                                                ; preds = %1
  %8 = load ptr, ptr %2, align 8, !tbaa !3
  %9 = getelementptr inbounds nuw %struct._object, ptr %8, i32 0, i32 0
  %10 = getelementptr inbounds nuw %struct.anon, ptr %9, i32 0, i32 0
  %11 = load i32, ptr %10, align 8, !tbaa !16
  %12 = add i32 %11, -1
  store i32 %12, ptr %10, align 8, !tbaa !16
  %13 = icmp eq i32 %12, 0
  br i1 %13, label %14, label %16

14:                                               ; preds = %7
  %15 = load ptr, ptr %2, align 8, !tbaa !3
  call void @_Py_Dealloc(ptr noundef %15)
  br label %16

16:                                               ; preds = %6, %14, %7
  ret void
}

; Function Attrs: inlinehint nounwind uwtable
define internal ptr @_Py_NewRef(ptr noundef %0) #3 {
  %2 = alloca ptr, align 8
  store ptr %0, ptr %2, align 8, !tbaa !3
  %3 = load ptr, ptr %2, align 8, !tbaa !3
  call void @Py_INCREF(ptr noundef %3)
  %4 = load ptr, ptr %2, align 8, !tbaa !3
  ret ptr %4
}

; Function Attrs: inlinehint nounwind uwtable
define internal i64 @_Py_REFCNT(ptr noundef %0) #3 {
  %2 = alloca ptr, align 8
  store ptr %0, ptr %2, align 8, !tbaa !3
  %3 = load ptr, ptr %2, align 8, !tbaa !3
  %4 = getelementptr inbounds nuw %struct._object, ptr %3, i32 0, i32 0
  %5 = getelementptr inbounds nuw %struct.anon, ptr %4, i32 0, i32 0
  %6 = load i32, ptr %5, align 8, !tbaa !16
  %7 = zext i32 %6 to i64
  ret i64 %7
}

; Function Attrs: nounwind uwtable
define internal ptr @test_refcount_macros(ptr noundef %0, ptr noundef %1) #0 {
  %3 = alloca ptr, align 8
  %4 = alloca ptr, align 8
  %5 = alloca ptr, align 8
  %6 = alloca ptr, align 8
  %7 = alloca i32, align 4
  %8 = alloca ptr, align 8
  %9 = alloca ptr, align 8
  store ptr %0, ptr %4, align 8, !tbaa !3
  store ptr %1, ptr %5, align 8, !tbaa !3
  br label %10

10:                                               ; preds = %2
  call void @llvm.lifetime.start.p0(i64 8, ptr %6) #6
  %11 = call ptr @PyList_New(i64 noundef 0)
  store ptr %11, ptr %6, align 8, !tbaa !3
  %12 = load ptr, ptr %6, align 8, !tbaa !3
  %13 = icmp eq ptr %12, null
  br i1 %13, label %14, label %15

14:                                               ; preds = %10
  store ptr null, ptr %3, align 8
  store i32 1, ptr %7, align 4
  br label %64

15:                                               ; preds = %10
  %16 = load ptr, ptr %6, align 8, !tbaa !3
  %17 = call i64 @_Py_REFCNT(ptr noundef %16)
  %18 = icmp eq i64 %17, 1
  br i1 %18, label %19, label %20

19:                                               ; preds = %15
  br label %22

20:                                               ; preds = %15
  call void @__assert_fail(ptr noundef @.str.39, ptr noundef @.str.28, i32 noundef 402, ptr noundef @__PRETTY_FUNCTION__.test_refcount_macros) #7
  unreachable

21:                                               ; No predecessors!
  br label %22

22:                                               ; preds = %21, %19
  call void @llvm.lifetime.start.p0(i64 8, ptr %8) #6
  %23 = load ptr, ptr %6, align 8, !tbaa !3
  %24 = call ptr @_Py_NewRef(ptr noundef %23)
  store ptr %24, ptr %8, align 8, !tbaa !3
  %25 = load ptr, ptr %8, align 8, !tbaa !3
  %26 = load ptr, ptr %6, align 8, !tbaa !3
  %27 = icmp eq ptr %25, %26
  br i1 %27, label %28, label %29

28:                                               ; preds = %22
  br label %31

29:                                               ; preds = %22
  call void @__assert_fail(ptr noundef @.str.40, ptr noundef @.str.28, i32 noundef 402, ptr noundef @__PRETTY_FUNCTION__.test_refcount_macros) #7
  unreachable

30:                                               ; No predecessors!
  br label %31

31:                                               ; preds = %30, %28
  %32 = load ptr, ptr %6, align 8, !tbaa !3
  %33 = call i64 @_Py_REFCNT(ptr noundef %32)
  %34 = icmp eq i64 %33, 2
  br i1 %34, label %35, label %36

35:                                               ; preds = %31
  br label %38

36:                                               ; preds = %31
  call void @__assert_fail(ptr noundef @.str.41, ptr noundef @.str.28, i32 noundef 402, ptr noundef @__PRETTY_FUNCTION__.test_refcount_macros) #7
  unreachable

37:                                               ; No predecessors!
  br label %38

38:                                               ; preds = %37, %35
  %39 = load ptr, ptr %8, align 8, !tbaa !3
  call void @Py_DECREF(ptr noundef %39)
  call void @llvm.lifetime.start.p0(i64 8, ptr %9) #6
  %40 = load ptr, ptr %6, align 8, !tbaa !3
  %41 = call ptr @_Py_XNewRef(ptr noundef %40)
  store ptr %41, ptr %9, align 8, !tbaa !3
  %42 = load ptr, ptr %9, align 8, !tbaa !3
  %43 = load ptr, ptr %6, align 8, !tbaa !3
  %44 = icmp eq ptr %42, %43
  br i1 %44, label %45, label %46

45:                                               ; preds = %38
  br label %48

46:                                               ; preds = %38
  call void @__assert_fail(ptr noundef @.str.42, ptr noundef @.str.28, i32 noundef 402, ptr noundef @__PRETTY_FUNCTION__.test_refcount_macros) #7
  unreachable

47:                                               ; No predecessors!
  br label %48

48:                                               ; preds = %47, %45
  %49 = load ptr, ptr %6, align 8, !tbaa !3
  %50 = call i64 @_Py_REFCNT(ptr noundef %49)
  %51 = icmp eq i64 %50, 2
  br i1 %51, label %52, label %53

52:                                               ; preds = %48
  br label %55

53:                                               ; preds = %48
  call void @__assert_fail(ptr noundef @.str.41, ptr noundef @.str.28, i32 noundef 402, ptr noundef @__PRETTY_FUNCTION__.test_refcount_macros) #7
  unreachable

54:                                               ; No predecessors!
  br label %55

55:                                               ; preds = %54, %52
  %56 = load ptr, ptr %9, align 8, !tbaa !3
  call void @Py_DECREF(ptr noundef %56)
  %57 = call ptr @_Py_XNewRef(ptr noundef null)
  %58 = icmp eq ptr %57, null
  br i1 %58, label %59, label %60

59:                                               ; preds = %55
  br label %62

60:                                               ; preds = %55
  call void @__assert_fail(ptr noundef @.str.43, ptr noundef @.str.28, i32 noundef 402, ptr noundef @__PRETTY_FUNCTION__.test_refcount_macros) #7
  unreachable

61:                                               ; No predecessors!
  br label %62

62:                                               ; preds = %61, %59
  %63 = load ptr, ptr %6, align 8, !tbaa !3
  call void @Py_DECREF(ptr noundef %63)
  store ptr @_Py_NoneStruct, ptr %3, align 8
  store i32 1, ptr %7, align 4
  call void @llvm.lifetime.end.p0(i64 8, ptr %9) #6
  call void @llvm.lifetime.end.p0(i64 8, ptr %8) #6
  br label %64

64:                                               ; preds = %62, %14
  call void @llvm.lifetime.end.p0(i64 8, ptr %6) #6
  br label %65

65:                                               ; preds = %64
  %66 = load ptr, ptr %3, align 8
  ret ptr %66
}