; Function Attrs: nounwind uwtable
define internal noundef ptr @test_refcount_macros(ptr readnone captures(none) %0, ptr readnone captures(none) %1) #0 {
  %3 = tail call ptr @PyList_New(i64 noundef 0) #5
  %4 = icmp eq ptr %3, null
  br i1 %4, label %Py_DECREF.exit20, label %5

5:                                                ; preds = %2
  %.val = load i32, ptr %3, align 8, !tbaa !8
  %6 = icmp eq i32 %.val, 1
  br i1 %6, label %8, label %7

7:                                                ; preds = %5
  tail call void @__assert_fail(ptr noundef nonnull @.str.39, ptr noundef nonnull @.str.28, i32 noundef 402, ptr noundef nonnull @__PRETTY_FUNCTION__.test_refcount_macros) #6
  unreachable

8:                                                ; preds = %5
  store i32 0, ptr %3, align 8, !tbaa !8
  tail call void @_Py_Dealloc(ptr noundef nonnull %3) #5
  br label %Py_DECREF.exit20

Py_DECREF.exit20:                                 ; preds = %8, %2
  %.0 = phi ptr [ null, %2 ], [ @_Py_NoneStruct, %8 ]
  ret ptr %.0
}